	.file	"sc1.c"
	.text
	.globl	a
	.bss
	.align 4
	.type	a, @object
	.size	a, 4
a:
	.zero	4
	.globl	b
	.align 4
	.type	b, @object
	.size	b, 4
b:
	.zero	4
	.globl	c
	.align 4
	.type	c, @object
	.size	c, 4
c:
	.zero	4
	.section	.rodata
.LC0:
	.string	"%d"
.LC1:
	.string	"%d %d\n"
	.text
	.globl	main
	.type	main, @function
main:
.LFB0:
	.cfi_startproc
	leal	4(%esp), %ecx
	.cfi_def_cfa 1, 0
	andl	$-16, %esp
	pushl	-4(%ecx)
	pushl	%ebp
	movl	%esp, %ebp
	.cfi_escape 0x10,0x5,0x2,0x75,0
	pushl	%ebx
	pushl	%ecx
	.cfi_escape 0xf,0x3,0x75,0x78,0x6
	.cfi_escape 0x10,0x3,0x2,0x75,0x7c
	call	__x86.get_pc_thunk.bx
	addl	$_GLOBAL_OFFSET_TABLE_, %ebx
	subl	$8, %esp
	leal	a@GOTOFF(%ebx), %eax
	pushl	%eax
	leal	.LC0@GOTOFF(%ebx), %eax
	pushl	%eax
	call	__isoc99_scanf@PLT
	addl	$16, %esp
	movl	a@GOTOFF(%ebx), %eax
	addl	%eax, %eax
	movl	%eax, b@GOTOFF(%ebx)
	movl	b@GOTOFF(%ebx), %edx
	movl	a@GOTOFF(%ebx), %eax
	subl	%eax, %edx
	movl	%edx, c@GOTOFF(%ebx)
	movl	c@GOTOFF(%ebx), %edx
	movl	b@GOTOFF(%ebx), %eax
	subl	$4, %esp
	pushl	%edx
	pushl	%eax
	leal	.LC1@GOTOFF(%ebx), %eax
	pushl	%eax
	call	printf@PLT
	addl	$16, %esp
	movl	$0, %eax
	leal	-8(%ebp), %esp
	popl	%ecx
	.cfi_restore 1
	.cfi_def_cfa 1, 0
	popl	%ebx
	.cfi_restore 3
	popl	%ebp
	.cfi_restore 5
	leal	-4(%ecx), %esp
	.cfi_def_cfa 4, 4
	ret
	.cfi_endproc
.LFE0:
	.size	main, .-main
	.section	.text.__x86.get_pc_thunk.bx,"axG",@progbits,__x86.get_pc_thunk.bx,comdat
	.globl	__x86.get_pc_thunk.bx
	.hidden	__x86.get_pc_thunk.bx
	.type	__x86.get_pc_thunk.bx, @function
__x86.get_pc_thunk.bx:
.LFB1:
	.cfi_startproc
	movl	(%esp), %ebx
	ret
	.cfi_endproc
.LFE1:
	.ident	"GCC: (Debian 12.2.0-14+deb12u1) 12.2.0"
	.section	.note.GNU-stack,"",@progbits
